; Function Attrs: mustprogress uwtable
define hidden void @_ZN11func_interp12insert_entryEPKP4exprS1_(ptr noundef nonnull align 8 dereferenceable(56) %this, ptr nocapture noundef readonly %args, ptr noundef %r) local_unnamed_addr #3 align 2 {
entry:
  %0 = load ptr, ptr %this, align 8
  %m_interp.i = getelementptr inbounds i8, ptr %this, i64 40
  %1 = load ptr, ptr %m_interp.i, align 8
  %tobool.not.i.i = icmp eq ptr %1, null
  br i1 %tobool.not.i.i, label %_ZN11ast_manager7dec_refEP3ast.exit.i, label %if.then.i.i

if.then.i.i:                                      ; preds = %entry
  %m_ref_count.i.i.i = getelementptr inbounds i8, ptr %1, i64 8
  %2 = load i32, ptr %m_ref_count.i.i.i, align 4
  %dec.i.i.i = add i32 %2, -1
  store i32 %dec.i.i.i, ptr %m_ref_count.i.i.i, align 4
  %cmp.i.i = icmp eq i32 %dec.i.i.i, 0
  br i1 %cmp.i.i, label %if.then2.i.i, label %_ZN11ast_manager7dec_refEP3ast.exit.i

if.then2.i.i:                                     ; preds = %if.then.i.i
  tail call void @_ZN11ast_manager11delete_nodeEP3ast(ptr noundef nonnull align 8 dereferenceable(976) %0, ptr noundef nonnull %1)
  br label %_ZN11ast_manager7dec_refEP3ast.exit.i

_ZN11ast_manager7dec_refEP3ast.exit.i:            ; preds = %if.then2.i.i, %if.then.i.i, %entry
  %3 = load ptr, ptr %this, align 8
  %m_array_interp.i = getelementptr inbounds i8, ptr %this, i64 48
  %4 = load ptr, ptr %m_array_interp.i, align 8
  %tobool.not.i1.i = icmp eq ptr %4, null
  br i1 %tobool.not.i1.i, label %_ZN11func_interp18reset_interp_cacheEv.exit, label %if.then.i2.i

if.then.i2.i:                                     ; preds = %_ZN11ast_manager7dec_refEP3ast.exit.i
  %m_ref_count.i.i3.i = getelementptr inbounds i8, ptr %4, i64 8
  %5 = load i32, ptr %m_ref_count.i.i3.i, align 4
  %dec.i.i4.i = add i32 %5, -1
  store i32 %dec.i.i4.i, ptr %m_ref_count.i.i3.i, align 4
  %cmp.i5.i = icmp eq i32 %dec.i.i4.i, 0
  br i1 %cmp.i5.i, label %if.then2.i6.i, label %_ZN11func_interp18reset_interp_cacheEv.exit

if.then2.i6.i:                                    ; preds = %if.then.i2.i
  tail call void @_ZN11ast_manager11delete_nodeEP3ast(ptr noundef nonnull align 8 dereferenceable(976) %3, ptr noundef nonnull %4)
  br label %_ZN11func_interp18reset_interp_cacheEv.exit

_ZN11func_interp18reset_interp_cacheEv.exit:      ; preds = %_ZN11ast_manager7dec_refEP3ast.exit.i, %if.then.i2.i, %if.then2.i6.i
  tail call void @llvm.memset.p0.i64(ptr noundef nonnull align 8 dereferenceable(16) %m_interp.i, i8 0, i64 16, i1 false)
  %m_entries.i = getelementptr inbounds i8, ptr %this, i64 16
  %6 = load ptr, ptr %m_entries.i, align 8
  %cmp.i.i.i = icmp eq ptr %6, null
  br i1 %cmp.i.i.i, label %if.end, label %_ZNK6vectorIP10func_entryLb0EjE3endEv.exit.i

_ZNK6vectorIP10func_entryLb0EjE3endEv.exit.i:     ; preds = %_ZN11func_interp18reset_interp_cacheEv.exit
  %arrayidx.i.i.i = getelementptr inbounds i8, ptr %6, i64 -4
  %7 = load i32, ptr %arrayidx.i.i.i, align 4
  %8 = zext i32 %7 to i64
  %add.ptr.i.i = getelementptr inbounds ptr, ptr %6, i64 %8
  %cmp.not9.i = icmp eq i32 %7, 0
  br i1 %cmp.not9.i, label %if.end, label %for.body.lr.ph.i

for.body.lr.ph.i:                                 ; preds = %_ZNK6vectorIP10func_entryLb0EjE3endEv.exit.i
  %m_arity.i = getelementptr inbounds i8, ptr %this, i64 8
  br label %for.body.i

for.cond.i:                                       ; preds = %_ZNK10func_entry7eq_argsER11ast_managerjPKP4expr.exit.i, %for.body.lr.ph.i.i
  %incdec.ptr.i = getelementptr inbounds i8, ptr %__begin1.010.i, i64 8
  %cmp.not.i = icmp eq ptr %incdec.ptr.i, %add.ptr.i.i
  br i1 %cmp.not.i, label %if.end, label %for.body.i

for.body.i:                                       ; preds = %for.cond.i, %for.body.lr.ph.i
  %__begin1.010.i = phi ptr [ %6, %for.body.lr.ph.i ], [ %incdec.ptr.i, %for.cond.i ]
  %9 = load ptr, ptr %__begin1.010.i, align 8
  %10 = load ptr, ptr %this, align 8
  %11 = load i32, ptr %m_arity.i, align 8
  %cmp4.i.i = icmp eq i32 %11, 0
  br i1 %cmp4.i.i, label %_ZNK11func_interp9get_entryEPKP4expr.exit, label %for.body.lr.ph.i.i

for.body.lr.ph.i.i:                               ; preds = %for.body.i
  %m_args.i.i = getelementptr inbounds i8, ptr %9, i64 16
  %12 = zext i32 %11 to i64
  %13 = load ptr, ptr %m_args.i.i, align 8
  %14 = load ptr, ptr %args, align 8
  %call.i6.i = tail call noundef zeroext i1 @_ZNK11ast_manager9are_equalEP4exprS1_(ptr noundef nonnull align 8 dereferenceable(976) %10, ptr noundef %13, ptr noundef %14)
  br i1 %call.i6.i, label %for.cond.i.i, label %for.cond.i

for.cond.i.i:                                     ; preds = %for.body.lr.ph.i.i, %for.body.i.i
  %indvars.iv.i7.i = phi i64 [ %indvars.iv.next.i.i, %for.body.i.i ], [ 0, %for.body.lr.ph.i.i ]
  %indvars.iv.next.i.i = add nuw nsw i64 %indvars.iv.i7.i, 1
  %exitcond.i.i = icmp eq i64 %indvars.iv.next.i.i, %12
  br i1 %exitcond.i.i, label %if.then, label %for.body.i.i, !llvm.loop !6

for.body.i.i:                                     ; preds = %for.cond.i.i
  %arrayidx.i.i = getelementptr inbounds [0 x ptr], ptr %m_args.i.i, i64 0, i64 %indvars.iv.next.i.i
  %15 = load ptr, ptr %arrayidx.i.i, align 8
  %arrayidx3.i.i = getelementptr inbounds ptr, ptr %args, i64 %indvars.iv.next.i.i
  %16 = load ptr, ptr %arrayidx3.i.i, align 8
  %call.i.i = tail call noundef zeroext i1 @_ZNK11ast_manager9are_equalEP4exprS1_(ptr noundef nonnull align 8 dereferenceable(976) %10, ptr noundef %15, ptr noundef %16)
  br i1 %call.i.i, label %for.cond.i.i, label %_ZNK10func_entry7eq_argsER11ast_managerjPKP4expr.exit.i, !llvm.loop !6

_ZNK10func_entry7eq_argsER11ast_managerjPKP4expr.exit.i: ; preds = %for.body.i.i
  %cmp.i.le.not.i = icmp ult i64 %indvars.iv.next.i.i, %12
  br i1 %cmp.i.le.not.i, label %for.cond.i, label %if.then

_ZNK11func_interp9get_entryEPKP4expr.exit:        ; preds = %for.body.i
  %cmp.not = icmp eq ptr %9, null
  br i1 %cmp.not, label %if.end, label %if.then

if.then:                                          ; preds = %_ZNK10func_entry7eq_argsER11ast_managerjPKP4expr.exit.i, %for.cond.i.i, %_ZNK11func_interp9get_entryEPKP4expr.exit
  %17 = load ptr, ptr %this, align 8
  %tobool.not.i.i4 = icmp eq ptr %r, null
  br i1 %tobool.not.i.i4, label %_ZN11ast_manager7inc_refEP3ast.exit.i, label %if.then.i.i5

if.then.i.i5:                                     ; preds = %if.then
  %m_ref_count.i.i.i6 = getelementptr inbounds i8, ptr %r, i64 8
  %18 = load i32, ptr %m_ref_count.i.i.i6, align 4
  %inc.i.i.i = add i32 %18, 1
  store i32 %inc.i.i.i, ptr %m_ref_count.i.i.i6, align 4
  br label %_ZN11ast_manager7inc_refEP3ast.exit.i

_ZN11ast_manager7inc_refEP3ast.exit.i:            ; preds = %if.then.i.i5, %if.then
  %m_result.i = getelementptr inbounds i8, ptr %9, i64 8
  %19 = load ptr, ptr %m_result.i, align 8
  %tobool.not.i3.i = icmp eq ptr %19, null
  br i1 %tobool.not.i3.i, label %_ZN10func_entry10set_resultER11ast_managerP4expr.exit, label %if.then.i4.i

if.then.i4.i:                                     ; preds = %_ZN11ast_manager7inc_refEP3ast.exit.i
  %m_ref_count.i.i5.i = getelementptr inbounds i8, ptr %19, i64 8
  %20 = load i32, ptr %m_ref_count.i.i5.i, align 4
  %dec.i.i.i7 = add i32 %20, -1
  store i32 %dec.i.i.i7, ptr %m_ref_count.i.i5.i, align 4
  %cmp.i.i8 = icmp eq i32 %dec.i.i.i7, 0
  br i1 %cmp.i.i8, label %if.then2.i.i10, label %_ZN10func_entry10set_resultER11ast_managerP4expr.exit

if.then2.i.i10:                                   ; preds = %if.then.i4.i
  tail call void @_ZN11ast_manager11delete_nodeEP3ast(ptr noundef nonnull align 8 dereferenceable(976) %17, ptr noundef nonnull %19)
  br label %_ZN10func_entry10set_resultER11ast_managerP4expr.exit

_ZN10func_entry10set_resultER11ast_managerP4expr.exit: ; preds = %_ZN11ast_manager7inc_refEP3ast.exit.i, %if.then.i4.i, %if.then2.i.i10
  store ptr %r, ptr %m_result.i, align 8
  br label %return

if.end:                                           ; preds = %for.cond.i, %_ZN11func_interp18reset_interp_cacheEv.exit, %_ZNK6vectorIP10func_entryLb0EjE3endEv.exit.i, %_ZNK11func_interp9get_entryEPKP4expr.exit
  tail call void @_ZN11func_interp16insert_new_entryEPKP4exprS1_(ptr noundef nonnull align 8 dereferenceable(56) %this, ptr noundef %args, ptr noundef %r)
  br label %return

return:                                           ; preds = %if.end, %_ZN10func_entry10set_resultER11ast_managerP4expr.exit
  ret void
}